target datalayout = "e-m:e-p270:32:32-p271:32:32-p272:64:64-i64:64-i128:128-f80:128-n8:16:32:64-S128"
target triple = "x86_64-pc-linux-gnu"

%struct.block_q5_1 = type { %union.anon.0, [4 x i8], [16 x i8] }
%union.anon.0 = type { i32 }
%struct.anon.1 = type { i16, i16 }
%union.anon.10 = type { float }
%union.anon.11 = type { i32 }

; Function Attrs: inlinehint nounwind uwtable
define internal float @fp32_from_bits(i32 noundef %0) #3 {
  %2 = alloca i32, align 4
  %3 = alloca %union.anon.11, align 4
  store i32 %0, ptr %2, align 4, !tbaa !11
  call void @llvm.lifetime.start.p0(i64 4, ptr %3) #10
  %4 = load i32, ptr %2, align 4, !tbaa !11
  store i32 %4, ptr %3, align 4, !tbaa !20
  %5 = load float, ptr %3, align 4, !tbaa !20
  call void @llvm.lifetime.end.p0(i64 4, ptr %3) #10
  ret float %5
}

; Function Attrs: inlinehint nounwind uwtable
define internal i32 @fp32_to_bits(float noundef %0) #3 {
  %2 = alloca float, align 4
  %3 = alloca %union.anon.10, align 4
  store float %0, ptr %2, align 4, !tbaa !13
  call void @llvm.lifetime.start.p0(i64 4, ptr %3) #10
  %4 = load float, ptr %2, align 4, !tbaa !13
  store float %4, ptr %3, align 4, !tbaa !20
  %5 = load i32, ptr %3, align 4, !tbaa !20
  call void @llvm.lifetime.end.p0(i64 4, ptr %3) #10
  ret i32 %5
}

; Function Attrs: inlinehint nounwind uwtable
define internal zeroext i16 @ggml_compute_fp32_to_fp16(float noundef %0) #3 {
  %2 = alloca float, align 4
  %3 = alloca float, align 4
  %4 = alloca float, align 4
  %5 = alloca float, align 4
  %6 = alloca i32, align 4
  %7 = alloca i32, align 4
  %8 = alloca i32, align 4
  %9 = alloca i32, align 4
  %10 = alloca i32, align 4
  %11 = alloca i32, align 4
  %12 = alloca i32, align 4
  %13 = alloca i32, align 4
  store float %0, ptr %2, align 4, !tbaa !13
  call void @llvm.lifetime.start.p0(i64 4, ptr %3) #10
  store float 0x46F0000000000000, ptr %3, align 4, !tbaa !13
  call void @llvm.lifetime.start.p0(i64 4, ptr %4) #10
  store float 0x3910000000000000, ptr %4, align 4, !tbaa !13
  call void @llvm.lifetime.start.p0(i64 4, ptr %5) #10
  %14 = load float, ptr %2, align 4, !tbaa !13
  %15 = call float @llvm.fabs.f32(float %14)
  %16 = fmul float %15, 0x46F0000000000000
  %17 = fmul float %16, 0x3910000000000000
  store float %17, ptr %5, align 4, !tbaa !13
  call void @llvm.lifetime.start.p0(i64 4, ptr %6) #10
  %18 = load float, ptr %2, align 4, !tbaa !13
  %19 = call i32 @fp32_to_bits(float noundef %18)
  store i32 %19, ptr %6, align 4, !tbaa !11
  call void @llvm.lifetime.start.p0(i64 4, ptr %7) #10
  %20 = load i32, ptr %6, align 4, !tbaa !11
  %21 = load i32, ptr %6, align 4, !tbaa !11
  %22 = add i32 %20, %21
  store i32 %22, ptr %7, align 4, !tbaa !11
  call void @llvm.lifetime.start.p0(i64 4, ptr %8) #10
  %23 = load i32, ptr %6, align 4, !tbaa !11
  %24 = and i32 %23, -2147483648
  store i32 %24, ptr %8, align 4, !tbaa !11
  call void @llvm.lifetime.start.p0(i64 4, ptr %9) #10
  %25 = load i32, ptr %7, align 4, !tbaa !11
  %26 = and i32 %25, -16777216
  store i32 %26, ptr %9, align 4, !tbaa !11
  %27 = load i32, ptr %9, align 4, !tbaa !11
  %28 = icmp ult i32 %27, 1895825408
  br i1 %28, label %29, label %30

29:                                               ; preds = %1
  store i32 1895825408, ptr %9, align 4, !tbaa !11
  br label %30

30:                                               ; preds = %29, %1
  %31 = load i32, ptr %9, align 4, !tbaa !11
  %32 = lshr i32 %31, 1
  %33 = add i32 %32, 125829120
  %34 = call float @fp32_from_bits(i32 noundef %33)
  %35 = load float, ptr %5, align 4, !tbaa !13
  %36 = fadd float %34, %35
  store float %36, ptr %5, align 4, !tbaa !13
  call void @llvm.lifetime.start.p0(i64 4, ptr %10) #10
  %37 = load float, ptr %5, align 4, !tbaa !13
  %38 = call i32 @fp32_to_bits(float noundef %37)
  store i32 %38, ptr %10, align 4, !tbaa !11
  call void @llvm.lifetime.start.p0(i64 4, ptr %11) #10
  %39 = load i32, ptr %10, align 4, !tbaa !11
  %40 = lshr i32 %39, 13
  %41 = and i32 %40, 31744
  store i32 %41, ptr %11, align 4, !tbaa !11
  call void @llvm.lifetime.start.p0(i64 4, ptr %12) #10
  %42 = load i32, ptr %10, align 4, !tbaa !11
  %43 = and i32 %42, 4095
  store i32 %43, ptr %12, align 4, !tbaa !11
  call void @llvm.lifetime.start.p0(i64 4, ptr %13) #10
  %44 = load i32, ptr %11, align 4, !tbaa !11
  %45 = load i32, ptr %12, align 4, !tbaa !11
  %46 = add i32 %44, %45
  store i32 %46, ptr %13, align 4, !tbaa !11
  %47 = load i32, ptr %8, align 4, !tbaa !11
  %48 = lshr i32 %47, 16
  %49 = load i32, ptr %7, align 4, !tbaa !11
  %50 = icmp ugt i32 %49, -16777216
  br i1 %50, label %51, label %52

51:                                               ; preds = %30
  br label %54

52:                                               ; preds = %30
  %53 = load i32, ptr %13, align 4, !tbaa !11
  br label %54

54:                                               ; preds = %52, %51
  %55 = phi i32 [ 32256, %51 ], [ %53, %52 ]
  %56 = or i32 %48, %55
  %57 = trunc i32 %56 to i16
  call void @llvm.lifetime.end.p0(i64 4, ptr %13) #10
  call void @llvm.lifetime.end.p0(i64 4, ptr %12) #10
  call void @llvm.lifetime.end.p0(i64 4, ptr %11) #10
  call void @llvm.lifetime.end.p0(i64 4, ptr %10) #10
  call void @llvm.lifetime.end.p0(i64 4, ptr %9) #10
  call void @llvm.lifetime.end.p0(i64 4, ptr %8) #10
  call void @llvm.lifetime.end.p0(i64 4, ptr %7) #10
  call void @llvm.lifetime.end.p0(i64 4, ptr %6) #10
  call void @llvm.lifetime.end.p0(i64 4, ptr %5) #10
  call void @llvm.lifetime.end.p0(i64 4, ptr %4) #10
  call void @llvm.lifetime.end.p0(i64 4, ptr %3) #10
  ret i16 %57
}

; Function Attrs: nounwind uwtable
define void @quantize_row_q5_1_ref(ptr noalias noundef %0, ptr noalias noundef %1, i64 noundef %2) #0 {
  %4 = alloca ptr, align 8
  %5 = alloca ptr, align 8
  %6 = alloca i64, align 8
  %7 = alloca i32, align 4
  %8 = alloca i32, align 4
  %9 = alloca i32, align 4
  %10 = alloca i32, align 4
  %11 = alloca float, align 4
  %12 = alloca float, align 4
  %13 = alloca i32, align 4
  %14 = alloca float, align 4
  %15 = alloca float, align 4
  %16 = alloca float, align 4
  %17 = alloca i32, align 4
  %18 = alloca i32, align 4
  %19 = alloca float, align 4
  %20 = alloca float, align 4
  %21 = alloca i8, align 1
  %22 = alloca i8, align 1
  store ptr %0, ptr %4, align 8, !tbaa !3
  store ptr %1, ptr %5, align 8, !tbaa !8
  store i64 %2, ptr %6, align 8, !tbaa !9
  call void @llvm.lifetime.start.p0(i64 4, ptr %7) #10
  store i32 32, ptr %7, align 4, !tbaa !11
  call void @llvm.lifetime.start.p0(i64 4, ptr %8) #10
  %23 = load i64, ptr %6, align 8, !tbaa !9
  %24 = sdiv i64 %23, 32
  %25 = trunc i64 %24 to i32
  store i32 %25, ptr %8, align 4, !tbaa !11
  call void @llvm.lifetime.start.p0(i64 4, ptr %9) #10
  store i32 0, ptr %9, align 4, !tbaa !11
  br label %26

26:                                               ; preds = %170, %3
  %27 = load i32, ptr %9, align 4, !tbaa !11
  %28 = load i32, ptr %8, align 4, !tbaa !11
  %29 = icmp slt i32 %27, %28
  br i1 %29, label %31, label %30

30:                                               ; preds = %26
  store i32 2, ptr %10, align 4
  call void @llvm.lifetime.end.p0(i64 4, ptr %9) #10
  br label %173

31:                                               ; preds = %26
  call void @llvm.lifetime.start.p0(i64 4, ptr %11) #10
  store float 0x47EFFFFFE0000000, ptr %11, align 4, !tbaa !13
  call void @llvm.lifetime.start.p0(i64 4, ptr %12) #10
  store float 0xC7EFFFFFE0000000, ptr %12, align 4, !tbaa !13
  call void @llvm.lifetime.start.p0(i64 4, ptr %13) #10
  store i32 0, ptr %13, align 4, !tbaa !11
  br label %32

32:                                               ; preds = %57, %31
  %33 = load i32, ptr %13, align 4, !tbaa !11
  %34 = icmp slt i32 %33, 32
  br i1 %34, label %36, label %35

35:                                               ; preds = %32
  store i32 5, ptr %10, align 4
  call void @llvm.lifetime.end.p0(i64 4, ptr %13) #10
  br label %60

36:                                               ; preds = %32
  call void @llvm.lifetime.start.p0(i64 4, ptr %14) #10
  %37 = load ptr, ptr %4, align 8, !tbaa !3
  %38 = load i32, ptr %9, align 4, !tbaa !11
  %39 = mul nsw i32 %38, 32
  %40 = load i32, ptr %13, align 4, !tbaa !11
  %41 = add nsw i32 %39, %40
  %42 = sext i32 %41 to i64
  %43 = getelementptr inbounds float, ptr %37, i64 %42
  %44 = load float, ptr %43, align 4, !tbaa !13
  store float %44, ptr %14, align 4, !tbaa !13
  %45 = load float, ptr %14, align 4, !tbaa !13
  %46 = load float, ptr %11, align 4, !tbaa !13
  %47 = fcmp olt float %45, %46
  br i1 %47, label %48, label %50

48:                                               ; preds = %36
  %49 = load float, ptr %14, align 4, !tbaa !13
  store float %49, ptr %11, align 4, !tbaa !13
  br label %50

50:                                               ; preds = %48, %36
  %51 = load float, ptr %14, align 4, !tbaa !13
  %52 = load float, ptr %12, align 4, !tbaa !13
  %53 = fcmp ogt float %51, %52
  br i1 %53, label %54, label %56

54:                                               ; preds = %50
  %55 = load float, ptr %14, align 4, !tbaa !13
  store float %55, ptr %12, align 4, !tbaa !13
  br label %56

56:                                               ; preds = %54, %50
  call void @llvm.lifetime.end.p0(i64 4, ptr %14) #10
  br label %57

57:                                               ; preds = %56
  %58 = load i32, ptr %13, align 4, !tbaa !11
  %59 = add nsw i32 %58, 1
  store i32 %59, ptr %13, align 4, !tbaa !11
  br label %32, !llvm.loop !31

60:                                               ; preds = %35
  call void @llvm.lifetime.start.p0(i64 4, ptr %15) #10
  %61 = load float, ptr %12, align 4, !tbaa !13
  %62 = load float, ptr %11, align 4, !tbaa !13
  %63 = fsub float %61, %62
  %64 = fdiv float %63, 3.100000e+01
  store float %64, ptr %15, align 4, !tbaa !13
  call void @llvm.lifetime.start.p0(i64 4, ptr %16) #10
  %65 = load float, ptr %15, align 4, !tbaa !13
  %66 = fcmp une float %65, 0.000000e+00
  br i1 %66, label %67, label %70

67:                                               ; preds = %60
  %68 = load float, ptr %15, align 4, !tbaa !13
  %69 = fdiv float 1.000000e+00, %68
  br label %71

70:                                               ; preds = %60
  br label %71

71:                                               ; preds = %70, %67
  %72 = phi float [ %69, %67 ], [ 0.000000e+00, %70 ]
  store float %72, ptr %16, align 4, !tbaa !13
  %73 = load float, ptr %15, align 4, !tbaa !13
  %74 = call zeroext i16 @ggml_compute_fp32_to_fp16(float noundef %73)
  %75 = load ptr, ptr %5, align 8, !tbaa !8
  %76 = load i32, ptr %9, align 4, !tbaa !11
  %77 = sext i32 %76 to i64
  %78 = getelementptr inbounds %struct.block_q5_1, ptr %75, i64 %77
  %79 = getelementptr inbounds nuw %struct.block_q5_1, ptr %78, i32 0, i32 0
  %80 = getelementptr inbounds nuw %struct.anon.1, ptr %79, i32 0, i32 0
  store i16 %74, ptr %80, align 4, !tbaa !20
  %81 = load float, ptr %11, align 4, !tbaa !13
  %82 = call zeroext i16 @ggml_compute_fp32_to_fp16(float noundef %81)
  %83 = load ptr, ptr %5, align 8, !tbaa !8
  %84 = load i32, ptr %9, align 4, !tbaa !11
  %85 = sext i32 %84 to i64
  %86 = getelementptr inbounds %struct.block_q5_1, ptr %83, i64 %85
  %87 = getelementptr inbounds nuw %struct.block_q5_1, ptr %86, i32 0, i32 0
  %88 = getelementptr inbounds nuw %struct.anon.1, ptr %87, i32 0, i32 1
  store i16 %82, ptr %88, align 2, !tbaa !20
  call void @llvm.lifetime.start.p0(i64 4, ptr %17) #10
  store i32 0, ptr %17, align 4, !tbaa !11
  call void @llvm.lifetime.start.p0(i64 4, ptr %18) #10
  store i32 0, ptr %18, align 4, !tbaa !11
  br label %89

89:                                               ; preds = %161, %71
  %90 = load i32, ptr %18, align 4, !tbaa !11
  %91 = icmp slt i32 %90, 16
  br i1 %91, label %93, label %92

92:                                               ; preds = %89
  store i32 8, ptr %10, align 4
  call void @llvm.lifetime.end.p0(i64 4, ptr %18) #10
  br label %164

93:                                               ; preds = %89
  call void @llvm.lifetime.start.p0(i64 4, ptr %19) #10
  %94 = load ptr, ptr %4, align 8, !tbaa !3
  %95 = load i32, ptr %9, align 4, !tbaa !11
  %96 = mul nsw i32 %95, 32
  %97 = add nsw i32 %96, 0
  %98 = load i32, ptr %18, align 4, !tbaa !11
  %99 = add nsw i32 %97, %98
  %100 = sext i32 %99 to i64
  %101 = getelementptr inbounds float, ptr %94, i64 %100
  %102 = load float, ptr %101, align 4, !tbaa !13
  %103 = load float, ptr %11, align 4, !tbaa !13
  %104 = fsub float %102, %103
  %105 = load float, ptr %16, align 4, !tbaa !13
  %106 = fmul float %104, %105
  store float %106, ptr %19, align 4, !tbaa !13
  call void @llvm.lifetime.start.p0(i64 4, ptr %20) #10
  %107 = load ptr, ptr %4, align 8, !tbaa !3
  %108 = load i32, ptr %9, align 4, !tbaa !11
  %109 = mul nsw i32 %108, 32
  %110 = add nsw i32 %109, 16
  %111 = load i32, ptr %18, align 4, !tbaa !11
  %112 = add nsw i32 %110, %111
  %113 = sext i32 %112 to i64
  %114 = getelementptr inbounds float, ptr %107, i64 %113
  %115 = load float, ptr %114, align 4, !tbaa !13
  %116 = load float, ptr %11, align 4, !tbaa !13
  %117 = fsub float %115, %116
  %118 = load float, ptr %16, align 4, !tbaa !13
  %119 = fmul float %117, %118
  store float %119, ptr %20, align 4, !tbaa !13
  call void @llvm.lifetime.start.p0(i64 1, ptr %21) #10
  %120 = load float, ptr %19, align 4, !tbaa !13
  %121 = fadd float %120, 5.000000e-01
  %122 = fptoui float %121 to i8
  store i8 %122, ptr %21, align 1, !tbaa !20
  call void @llvm.lifetime.start.p0(i64 1, ptr %22) #10
  %123 = load float, ptr %20, align 4, !tbaa !13
  %124 = fadd float %123, 5.000000e-01
  %125 = fptoui float %124 to i8
  store i8 %125, ptr %22, align 1, !tbaa !20
  %126 = load i8, ptr %21, align 1, !tbaa !20
  %127 = zext i8 %126 to i32
  %128 = and i32 %127, 15
  %129 = load i8, ptr %22, align 1, !tbaa !20
  %130 = zext i8 %129 to i32
  %131 = and i32 %130, 15
  %132 = shl i32 %131, 4
  %133 = or i32 %128, %132
  %134 = trunc i32 %133 to i8
  %135 = load ptr, ptr %5, align 8, !tbaa !8
  %136 = load i32, ptr %9, align 4, !tbaa !11
  %137 = sext i32 %136 to i64
  %138 = getelementptr inbounds %struct.block_q5_1, ptr %135, i64 %137
  %139 = getelementptr inbounds nuw %struct.block_q5_1, ptr %138, i32 0, i32 2
  %140 = load i32, ptr %18, align 4, !tbaa !11
  %141 = sext i32 %140 to i64
  %142 = getelementptr inbounds [16 x i8], ptr %139, i64 0, i64 %141
  store i8 %134, ptr %142, align 1, !tbaa !20
  %143 = load i8, ptr %21, align 1, !tbaa !20
  %144 = zext i8 %143 to i32
  %145 = and i32 %144, 16
  %146 = lshr i32 %145, 4
  %147 = load i32, ptr %18, align 4, !tbaa !11
  %148 = add nsw i32 %147, 0
  %149 = shl i32 %146, %148
  %150 = load i32, ptr %17, align 4, !tbaa !11
  %151 = or i32 %150, %149
  store i32 %151, ptr %17, align 4, !tbaa !11
  %152 = load i8, ptr %22, align 1, !tbaa !20
  %153 = zext i8 %152 to i32
  %154 = and i32 %153, 16
  %155 = lshr i32 %154, 4
  %156 = load i32, ptr %18, align 4, !tbaa !11
  %157 = add nsw i32 %156, 16
  %158 = shl i32 %155, %157
  %159 = load i32, ptr %17, align 4, !tbaa !11
  %160 = or i32 %159, %158
  store i32 %160, ptr %17, align 4, !tbaa !11
  call void @llvm.lifetime.end.p0(i64 1, ptr %22) #10
  call void @llvm.lifetime.end.p0(i64 1, ptr %21) #10
  call void @llvm.lifetime.end.p0(i64 4, ptr %20) #10
  call void @llvm.lifetime.end.p0(i64 4, ptr %19) #10
  br label %161

161:                                              ; preds = %93
  %162 = load i32, ptr %18, align 4, !tbaa !11
  %163 = add nsw i32 %162, 1
  store i32 %163, ptr %18, align 4, !tbaa !11
  br label %89, !llvm.loop !32

164:                                              ; preds = %92
  %165 = load ptr, ptr %5, align 8, !tbaa !8
  %166 = load i32, ptr %9, align 4, !tbaa !11
  %167 = sext i32 %166 to i64
  %168 = getelementptr inbounds %struct.block_q5_1, ptr %165, i64 %167
  %169 = getelementptr inbounds nuw %struct.block_q5_1, ptr %168, i32 0, i32 1
  call void @llvm.memcpy.p0.p0.i64(ptr align 4 %169, ptr align 4 %17, i64 4, i1 false)
  call void @llvm.lifetime.end.p0(i64 4, ptr %17) #10
  call void @llvm.lifetime.end.p0(i64 4, ptr %16) #10
  call void @llvm.lifetime.end.p0(i64 4, ptr %15) #10
  call void @llvm.lifetime.end.p0(i64 4, ptr %12) #10
  call void @llvm.lifetime.end.p0(i64 4, ptr %11) #10
  br label %170

170:                                              ; preds = %164
  %171 = load i32, ptr %9, align 4, !tbaa !11
  %172 = add nsw i32 %171, 1
  store i32 %172, ptr %9, align 4, !tbaa !11
  br label %26, !llvm.loop !33

173:                                              ; preds = %30
  call void @llvm.lifetime.end.p0(i64 4, ptr %8) #10
  call void @llvm.lifetime.end.p0(i64 4, ptr %7) #10
  ret void
}