; Function Attrs: nofree norecurse nosync nounwind memory(argmem: readwrite) uwtable
define void @quantize_row_q5_1_ref(ptr noalias noundef readonly captures(none) %0, ptr noalias noundef writeonly captures(none) %1, i64 noundef %2) local_unnamed_addr #0 {
  %4 = sdiv i64 %2, 32
  %5 = trunc i64 %4 to i32
  %6 = icmp sgt i32 %5, 0
  br i1 %6, label %.preheader.preheader, label %._crit_edge

.preheader.preheader:                             ; preds = %3
  %wide.trip.count = and i64 %4, 2147483647
  br label %.preheader

.preheader:                                       ; preds = %.preheader.preheader, %63
  %indvars.iv71 = phi i64 [ 0, %.preheader.preheader ], [ %indvars.iv.next72, %63 ]
  %7 = shl nsw i64 %indvars.iv71, 5
  %invariant.gep = getelementptr inbounds nuw float, ptr %0, i64 %7
  br label %59

._crit_edge:                                      ; preds = %63, %3
  ret void

8:                                                ; preds = %59
  %9 = fsub float %.153, %.1
  %10 = fdiv float %9, 3.100000e+01
  %11 = fcmp une float %10, 0.000000e+00
  %12 = fdiv float 1.000000e+00, %10
  %13 = select i1 %11, float %12, float 0.000000e+00
  %14 = tail call float @llvm.fabs.f32(float %10)
  %15 = fmul float %14, 0x46F0000000000000
  %16 = fmul float %15, 0x3910000000000000
  %17 = bitcast float %10 to i32
  %18 = shl i32 %17, 1
  %19 = tail call i32 @llvm.umax.i32(i32 %18, i32 1895825408)
  %spec.store.select.i = lshr exact i32 %19, 1
  %20 = and i32 %spec.store.select.i, 2139095040
  %21 = add nuw i32 %20, 125829120
  %22 = bitcast i32 %21 to float
  %23 = fadd float %16, %22
  %24 = bitcast float %23 to i32
  %25 = lshr i32 %24, 13
  %26 = and i32 %25, 31744
  %27 = and i32 %24, 4095
  %28 = add nuw nsw i32 %26, %27
  %29 = lshr i32 %17, 16
  %30 = and i32 %29, 32768
  %31 = icmp ugt i32 %18, -16777216
  %32 = select i1 %31, i32 32256, i32 %28
  %33 = or i32 %32, %30
  %34 = trunc nuw i32 %33 to i16
  %35 = getelementptr inbounds nuw %struct.block_q5_1, ptr %1, i64 %indvars.iv71
  store i16 %34, ptr %35, align 4, !tbaa !13
  %36 = tail call float @llvm.fabs.f32(float %.1)
  %37 = fmul float %36, 0x46F0000000000000
  %38 = fmul float %37, 0x3910000000000000
  %39 = bitcast float %.1 to i32
  %40 = shl i32 %39, 1
  %41 = tail call i32 @llvm.umax.i32(i32 %40, i32 1895825408)
  %spec.store.select.i59 = lshr exact i32 %41, 1
  %42 = and i32 %spec.store.select.i59, 2139095040
  %43 = add nuw i32 %42, 125829120
  %44 = bitcast i32 %43 to float
  %45 = fadd float %38, %44
  %46 = bitcast float %45 to i32
  %47 = lshr i32 %46, 13
  %48 = and i32 %47, 31744
  %49 = and i32 %46, 4095
  %50 = add nuw nsw i32 %48, %49
  %51 = lshr i32 %39, 16
  %52 = and i32 %51, 32768
  %53 = icmp ugt i32 %40, -16777216
  %54 = select i1 %53, i32 32256, i32 %50
  %55 = or i32 %54, %52
  %56 = trunc nuw i32 %55 to i16
  %57 = getelementptr inbounds nuw i8, ptr %35, i64 2
  store i16 %56, ptr %57, align 2, !tbaa !13
  %58 = getelementptr inbounds nuw i8, ptr %35, i64 8
  br label %65

59:                                               ; preds = %.preheader, %59
  %indvars.iv = phi i64 [ 0, %.preheader ], [ %indvars.iv.next, %59 ]
  %.05162 = phi float [ 0x47EFFFFFE0000000, %.preheader ], [ %.1, %59 ]
  %.05261 = phi float [ 0xC7EFFFFFE0000000, %.preheader ], [ %.153, %59 ]
  %gep = getelementptr inbounds nuw float, ptr %invariant.gep, i64 %indvars.iv
  %60 = load float, ptr %gep, align 4, !tbaa !8
  %61 = fcmp olt float %60, %.05162
  %.1 = select i1 %61, float %60, float %.05162
  %62 = fcmp ogt float %60, %.05261
  %.153 = select i1 %62, float %60, float %.05261
  %indvars.iv.next = add nuw nsw i64 %indvars.iv, 1
  %exitcond.not = icmp eq i64 %indvars.iv.next, 32
  br i1 %exitcond.not, label %8, label %59, !llvm.loop !23

63:                                               ; preds = %65
  %64 = getelementptr inbounds nuw i8, ptr %35, i64 4
  store i32 %96, ptr %64, align 4
  %indvars.iv.next72 = add nuw nsw i64 %indvars.iv71, 1
  %exitcond74.not = icmp eq i64 %indvars.iv.next72, %wide.trip.count
  br i1 %exitcond74.not, label %._crit_edge, label %.preheader, !llvm.loop !24

65:                                               ; preds = %8, %65
  %indvars.iv67 = phi i64 [ 0, %8 ], [ %indvars.iv.next68, %65 ]
  %.05563 = phi i32 [ 0, %8 ], [ %96, %65 ]
  %66 = add nuw nsw i64 %indvars.iv67, %7
  %67 = getelementptr inbounds nuw float, ptr %0, i64 %66
  %68 = load float, ptr %67, align 4, !tbaa !8
  %69 = fsub float %68, %.1
  %70 = fmul float %13, %69
  %71 = or disjoint i64 %66, 16
  %72 = getelementptr inbounds nuw float, ptr %0, i64 %71
  %73 = load float, ptr %72, align 4, !tbaa !8
  %74 = fsub float %73, %.1
  %75 = fmul float %13, %74
  %76 = fadd float %70, 5.000000e-01
  %77 = fptoui float %76 to i8
  %78 = fadd float %75, 5.000000e-01
  %79 = fptoui float %78 to i8
  %80 = and i8 %77, 15
  %81 = shl i8 %79, 4
  %82 = or disjoint i8 %81, %80
  %83 = getelementptr inbounds nuw [16 x i8], ptr %58, i64 0, i64 %indvars.iv67
  store i8 %82, ptr %83, align 1, !tbaa !13
  %84 = lshr i8 %77, 4
  %85 = and i8 %84, 1
  %86 = zext nneg i8 %85 to i32
  %87 = trunc nuw nsw i64 %indvars.iv67 to i32
  %88 = shl nuw nsw i32 %86, %87
  %89 = lshr i8 %79, 4
  %90 = and i8 %89, 1
  %91 = zext nneg i8 %90 to i32
  %92 = trunc i64 %indvars.iv67 to i32
  %93 = add i32 %92, 16
  %94 = shl nuw i32 %91, %93
  %95 = add nuw nsw i32 %94, %88
  %96 = or i32 %95, %.05563
  %indvars.iv.next68 = add nuw nsw i64 %indvars.iv67, 1
  %exitcond70.not = icmp eq i64 %indvars.iv.next68, 16
  br i1 %exitcond70.not, label %63, label %65, !llvm.loop !25
}